; Function Attrs: mustprogress uwtable
define dso_local void @_ZN6V3Dead16deadifyAllScopedEP10AstNetlist(ptr noundef %0) #3 align 2 personality ptr @__gxx_personality_v0 {
  %2 = alloca %"class.std::__cxx11::basic_string", align 8
  %3 = alloca %class.DeadVisitor, align 8
  %4 = alloca %"class.std::__cxx11::basic_string", align 8
  %5 = alloca %"class.std::allocator", align 1
  %6 = tail call noundef i32 @_ZL5debugv()
  %7 = icmp sgt i32 %6, 1
  br i1 %7, label %8, label %20

8:                                                ; preds = %1
  %9 = tail call noundef nonnull align 8 dereferenceable(8) ptr @_ZStlsISt11char_traitsIcEERSt13basic_ostreamIcT_ES5_PKc(ptr noundef nonnull align 8 dereferenceable(8) @_ZSt4cout, ptr noundef nonnull @.str)
  call void @_ZN7V3Error7lineStrB5cxx11EPKci(ptr dead_on_unwind nonnull writable sret(%"class.std::__cxx11::basic_string") align 8 %2, ptr noundef nonnull @.str.1, i32 noundef 568)
  %10 = invoke noundef nonnull align 8 dereferenceable(8) ptr @_ZStlsIcSt11char_traitsIcESaIcEERSt13basic_ostreamIT_T0_ES7_RKNSt7__cxx1112basic_stringIS4_S5_T1_EE(ptr noundef nonnull align 8 dereferenceable(8) %9, ptr noundef nonnull align 8 dereferenceable(32) %2)
          to label %11 unwind label %18

11:                                               ; preds = %8
  %12 = invoke noundef nonnull align 8 dereferenceable(8) ptr @_ZStlsISt11char_traitsIcEERSt13basic_ostreamIcT_ES5_PKc(ptr noundef nonnull align 8 dereferenceable(8) %10, ptr noundef nonnull @__FUNCTION__._ZN6V3Dead16deadifyAllScopedEP10AstNetlist)
          to label %13 unwind label %18

13:                                               ; preds = %11
  %14 = invoke noundef nonnull align 8 dereferenceable(8) ptr @_ZStlsISt11char_traitsIcEERSt13basic_ostreamIcT_ES5_PKc(ptr noundef nonnull align 8 dereferenceable(8) %12, ptr noundef nonnull @.str.2)
          to label %15 unwind label %18

15:                                               ; preds = %13
  %16 = invoke noundef nonnull align 8 dereferenceable(8) ptr @_ZNSolsEPFRSoS_E(ptr noundef nonnull align 8 dereferenceable(8) %14, ptr noundef nonnull @_ZSt4endlIcSt11char_traitsIcEERSt13basic_ostreamIT_T0_ES6_)
          to label %17 unwind label %18

17:                                               ; preds = %15
  call void @_ZNSt7__cxx1112basic_stringIcSt11char_traitsIcESaIcEED1Ev(ptr noundef nonnull align 8 dereferenceable(32) %2) #18
  br label %20

18:                                               ; preds = %15, %13, %11, %8
  %19 = landingpad { ptr, i32 }
          cleanup
  call void @_ZNSt7__cxx1112basic_stringIcSt11char_traitsIcESaIcEED1Ev(ptr noundef nonnull align 8 dereferenceable(32) %2) #18
  br label %37

20:                                               ; preds = %1, %17
  call void @_ZN11DeadVisitorC2EP10AstNetlistbbbbb(ptr noundef nonnull align 8 dereferenceable(280) %3, ptr noundef %0, i1 noundef zeroext true, i1 noundef zeroext true, i1 noundef zeroext true, i1 noundef zeroext true, i1 noundef zeroext false)
  call void @_ZN11DeadVisitorD2Ev(ptr noundef nonnull align 8 dereferenceable(280) %3) #18
  call void @_ZNSaIcEC1Ev(ptr noundef nonnull align 1 dereferenceable(1) %5) #18
  %21 = invoke noundef ptr @_ZNSt7__cxx1112basic_stringIcSt11char_traitsIcESaIcEE13_M_local_dataEv(ptr noundef nonnull align 8 dereferenceable(32) %4)
          to label %.noexc unwind label %33

.noexc:                                           ; preds = %20
  invoke void @_ZNSt7__cxx1112basic_stringIcSt11char_traitsIcESaIcEE12_Alloc_hiderC1EPcRKS3_(ptr noundef nonnull align 8 dereferenceable(8) %4, ptr noundef %21, ptr noundef nonnull align 1 dereferenceable(1) %5)
          to label %.noexc6 unwind label %33

.noexc6:                                          ; preds = %.noexc
  invoke void @_ZNSt7__cxx1112basic_stringIcSt11char_traitsIcESaIcEE12_M_constructIPKcEEvT_S8_St20forward_iterator_tag(ptr noundef nonnull align 8 dereferenceable(32) %4, ptr noundef nonnull @.str.7, ptr noundef nonnull getelementptr inbounds ([14 x i8], ptr @.str.7, i64 0, i64 13))
          to label %_ZNSt7__cxx1112basic_stringIcSt11char_traitsIcESaIcEEC2IS3_EEPKcRKS3_.exit unwind label %22

22:                                               ; preds = %.noexc6
  %23 = landingpad { ptr, i32 }
          cleanup
  call void @_ZNSaIcED2Ev(ptr noundef nonnull align 1 dereferenceable(1) %4) #18
  br label %.body

_ZNSt7__cxx1112basic_stringIcSt11char_traitsIcESaIcEEC2IS3_EEPKcRKS3_.exit: ; preds = %.noexc6
  %24 = invoke fastcc noundef i32 @_ZL17dumpTreeJsonLevelv()
          to label %.noexc7 unwind label %35

.noexc7:                                          ; preds = %_ZNSt7__cxx1112basic_stringIcSt11char_traitsIcESaIcEEC2IS3_EEPKcRKS3_.exit
  %25 = invoke fastcc noundef i32 @_ZL13dumpTreeLevelv()
          to label %.noexc8 unwind label %35

.noexc8:                                          ; preds = %.noexc7
  %.not.i = icmp slt i32 %24, %25
  br i1 %.not.i, label %28, label %26

26:                                               ; preds = %.noexc8
  %27 = invoke fastcc noundef i32 @_ZL17dumpTreeJsonLevelv()
          to label %_ZL19dumpTreeEitherLevelv.exit unwind label %35

28:                                               ; preds = %.noexc8
  %29 = invoke fastcc noundef i32 @_ZL13dumpTreeLevelv()
          to label %_ZL19dumpTreeEitherLevelv.exit unwind label %35

_ZL19dumpTreeEitherLevelv.exit:                   ; preds = %26, %28
  %30 = phi i32 [ %27, %26 ], [ %29, %28 ]
  %31 = icmp sgt i32 %30, 2
  invoke void @_ZN8V3Global19dumpCheckGlobalTreeERKNSt7__cxx1112basic_stringIcSt11char_traitsIcESaIcEEEib(ptr noundef nonnull align 8 dereferenceable(32) %4, i32 noundef 0, i1 noundef zeroext %31)
          to label %32 unwind label %35

32:                                               ; preds = %_ZL19dumpTreeEitherLevelv.exit
  call void @_ZNSt7__cxx1112basic_stringIcSt11char_traitsIcESaIcEED1Ev(ptr noundef nonnull align 8 dereferenceable(32) %4) #18
  call void @_ZNSaIcED1Ev(ptr noundef nonnull align 1 dereferenceable(1) %5) #18
  ret void

33:                                               ; preds = %.noexc, %20
  %34 = landingpad { ptr, i32 }
          cleanup
  br label %.body

35:                                               ; preds = %28, %26, %.noexc7, %_ZNSt7__cxx1112basic_stringIcSt11char_traitsIcESaIcEEC2IS3_EEPKcRKS3_.exit, %_ZL19dumpTreeEitherLevelv.exit
  %36 = landingpad { ptr, i32 }
          cleanup
  call void @_ZNSt7__cxx1112basic_stringIcSt11char_traitsIcESaIcEED1Ev(ptr noundef nonnull align 8 dereferenceable(32) %4) #18
  br label %.body

.body:                                            ; preds = %33, %22, %35
  %.pn = phi { ptr, i32 } [ %36, %35 ], [ %34, %33 ], [ %23, %22 ]
  call void @_ZNSaIcED1Ev(ptr noundef nonnull align 1 dereferenceable(1) %5) #18
  br label %37

37:                                               ; preds = %.body, %18
  %.pn.pn = phi { ptr, i32 } [ %.pn, %.body ], [ %19, %18 ]
  resume { ptr, i32 } %.pn.pn
}